target datalayout = "e-m:e-p270:32:32-p271:32:32-p272:64:64-i64:64-i128:128-f80:128-n8:16:32:64-S128"
target triple = "x86_64-pc-linux-gnu"

%struct.ParseState = type { ptr, ptr, i32, i32, ptr, ptr, ptr, ptr, ptr, ptr, i8, ptr, ptr, ptr, ptr, ptr, ptr, i8, ptr, i32, i32, ptr, ptr, i8, i8, ptr, i8, i8, i8, i8, i8, ptr, ptr, ptr, ptr, ptr, ptr }
%struct.Node = type { i32 }
%struct.Expr = type { i32 }
%union.ListCell = type { ptr }
%struct.ForEachState = type { ptr, i32 }
%struct.List = type { i32, i32, i32, ptr, [0 x %union.ListCell] }
%struct.CoalesceExpr = type { %struct.Expr, i32, i32, ptr, i32 }

@.str.41 = private unnamed_addr constant [13 x i8] c"parse_expr.c\00", align 1
@.str.109 = private unnamed_addr constant [46 x i8] c"set-returning functions are not allowed in %s\00", align 1
@.str.110 = private unnamed_addr constant [79 x i8] c"You might be able to move the set-returning function into a LATERAL FROM item.\00", align 1
@.str.113 = private unnamed_addr constant [9 x i8] c"COALESCE\00", align 1
@__func__.transformCoalesceExpr = private unnamed_addr constant [22 x i8] c"transformCoalesceExpr\00", align 1

; Function Attrs: inlinehint nounwind uwtable
define internal ptr @newNode(i64 noundef %0, i32 noundef %1) #4 {
  %3 = alloca i64, align 8
  %4 = alloca i32, align 4
  %5 = alloca ptr, align 8
  store i64 %0, ptr %3, align 8
  store i32 %1, ptr %4, align 4
  call void @llvm.lifetime.start.p0(i64 8, ptr %5) #8
  %6 = load i64, ptr %3, align 8
  %7 = call ptr @palloc0(i64 noundef %6)
  store ptr %7, ptr %5, align 8
  %8 = load i32, ptr %4, align 4
  %9 = load ptr, ptr %5, align 8
  %10 = getelementptr inbounds nuw %struct.Node, ptr %9, i32 0, i32 0
  store i32 %8, ptr %10, align 4
  %11 = load ptr, ptr %5, align 8
  call void @llvm.lifetime.end.p0(i64 8, ptr %5) #8
  ret ptr %11
}

; Function Attrs: nounwind uwtable
define internal ptr @transformCoalesceExpr(ptr noundef %0, ptr noundef %1) #0 {
  %3 = alloca ptr, align 8
  %4 = alloca ptr, align 8
  %5 = alloca ptr, align 8
  %6 = alloca ptr, align 8
  %7 = alloca ptr, align 8
  %8 = alloca ptr, align 8
  %9 = alloca ptr, align 8
  %10 = alloca %struct.ForEachState, align 8
  %11 = alloca ptr, align 8
  %12 = alloca ptr, align 8
  %13 = alloca %struct.ForEachState, align 8
  %14 = alloca ptr, align 8
  %15 = alloca ptr, align 8
  store ptr %0, ptr %3, align 8
  store ptr %1, ptr %4, align 8
  call void @llvm.lifetime.start.p0(i64 8, ptr %5) #8
  %16 = call ptr @newNode(i64 noundef 32, i32 noundef 38)
  store ptr %16, ptr %5, align 8
  call void @llvm.lifetime.start.p0(i64 8, ptr %6) #8
  %17 = load ptr, ptr %3, align 8
  %18 = getelementptr inbounds nuw %struct.ParseState, ptr %17, i32 0, i32 31
  %19 = load ptr, ptr %18, align 8
  store ptr %19, ptr %6, align 8
  call void @llvm.lifetime.start.p0(i64 8, ptr %7) #8
  store ptr null, ptr %7, align 8
  call void @llvm.lifetime.start.p0(i64 8, ptr %8) #8
  store ptr null, ptr %8, align 8
  call void @llvm.lifetime.start.p0(i64 8, ptr %9) #8
  call void @llvm.lifetime.start.p0(i64 16, ptr %10) #8
  %20 = getelementptr inbounds nuw %struct.ForEachState, ptr %10, i32 0, i32 0
  %21 = load ptr, ptr %4, align 8
  %22 = getelementptr inbounds nuw %struct.CoalesceExpr, ptr %21, i32 0, i32 3
  %23 = load ptr, ptr %22, align 8
  store ptr %23, ptr %20, align 8
  %24 = getelementptr inbounds nuw %struct.ForEachState, ptr %10, i32 0, i32 1
  store i32 0, ptr %24, align 8
  %25 = getelementptr i8, ptr %10, i64 12
  call void @llvm.memset.p0.i64(ptr align 4 %25, i8 0, i64 4, i1 false)
  br label %26

26:                                               ; preds = %61, %2
  %27 = getelementptr inbounds nuw %struct.ForEachState, ptr %10, i32 0, i32 0
  %28 = load ptr, ptr %27, align 8
  %29 = icmp ne ptr %28, null
  br i1 %29, label %30, label %47

30:                                               ; preds = %26
  %31 = getelementptr inbounds nuw %struct.ForEachState, ptr %10, i32 0, i32 1
  %32 = load i32, ptr %31, align 8
  %33 = getelementptr inbounds nuw %struct.ForEachState, ptr %10, i32 0, i32 0
  %34 = load ptr, ptr %33, align 8
  %35 = getelementptr inbounds nuw %struct.List, ptr %34, i32 0, i32 1
  %36 = load i32, ptr %35, align 4
  %37 = icmp slt i32 %32, %36
  br i1 %37, label %38, label %47

38:                                               ; preds = %30
  %39 = getelementptr inbounds nuw %struct.ForEachState, ptr %10, i32 0, i32 0
  %40 = load ptr, ptr %39, align 8
  %41 = getelementptr inbounds nuw %struct.List, ptr %40, i32 0, i32 3
  %42 = load ptr, ptr %41, align 8
  %43 = getelementptr inbounds nuw %struct.ForEachState, ptr %10, i32 0, i32 1
  %44 = load i32, ptr %43, align 8
  %45 = sext i32 %44 to i64
  %46 = getelementptr inbounds %union.ListCell, ptr %42, i64 %45
  store ptr %46, ptr %9, align 8
  br label %48

47:                                               ; preds = %30, %26
  store ptr null, ptr %9, align 8
  br label %48

48:                                               ; preds = %47, %38
  %49 = phi i32 [ 1, %38 ], [ 0, %47 ]
  %50 = icmp ne i32 %49, 0
  br i1 %50, label %52, label %51

51:                                               ; preds = %48
  call void @llvm.lifetime.end.p0(i64 16, ptr %10) #8
  br label %65

52:                                               ; preds = %48
  call void @llvm.lifetime.start.p0(i64 8, ptr %11) #8
  %53 = load ptr, ptr %9, align 8
  %54 = load ptr, ptr %53, align 8
  store ptr %54, ptr %11, align 8
  call void @llvm.lifetime.start.p0(i64 8, ptr %12) #8
  %55 = load ptr, ptr %3, align 8
  %56 = load ptr, ptr %11, align 8
  %57 = call ptr @transformExprRecurse(ptr noundef %55, ptr noundef %56)
  store ptr %57, ptr %12, align 8
  %58 = load ptr, ptr %7, align 8
  %59 = load ptr, ptr %12, align 8
  %60 = call ptr @lappend(ptr noundef %58, ptr noundef %59)
  store ptr %60, ptr %7, align 8
  call void @llvm.lifetime.end.p0(i64 8, ptr %12) #8
  call void @llvm.lifetime.end.p0(i64 8, ptr %11) #8
  br label %61

61:                                               ; preds = %52
  %62 = getelementptr inbounds nuw %struct.ForEachState, ptr %10, i32 0, i32 1
  %63 = load i32, ptr %62, align 8
  %64 = add i32 %63, 1
  store i32 %64, ptr %62, align 8
  br label %26, !llvm.loop !21

65:                                               ; preds = %51
  %66 = load ptr, ptr %3, align 8
  %67 = load ptr, ptr %7, align 8
  %68 = call i32 @select_common_type(ptr noundef %66, ptr noundef %67, ptr noundef @.str.113, ptr noundef null)
  %69 = load ptr, ptr %5, align 8
  %70 = getelementptr inbounds nuw %struct.CoalesceExpr, ptr %69, i32 0, i32 1
  store i32 %68, ptr %70, align 4
  call void @llvm.lifetime.start.p0(i64 16, ptr %13) #8
  %71 = getelementptr inbounds nuw %struct.ForEachState, ptr %13, i32 0, i32 0
  %72 = load ptr, ptr %7, align 8
  store ptr %72, ptr %71, align 8
  %73 = getelementptr inbounds nuw %struct.ForEachState, ptr %13, i32 0, i32 1
  store i32 0, ptr %73, align 8
  %74 = getelementptr i8, ptr %13, i64 12
  call void @llvm.memset.p0.i64(ptr align 4 %74, i8 0, i64 4, i1 false)
  br label %75

75:                                               ; preds = %113, %65
  %76 = getelementptr inbounds nuw %struct.ForEachState, ptr %13, i32 0, i32 0
  %77 = load ptr, ptr %76, align 8
  %78 = icmp ne ptr %77, null
  br i1 %78, label %79, label %96

79:                                               ; preds = %75
  %80 = getelementptr inbounds nuw %struct.ForEachState, ptr %13, i32 0, i32 1
  %81 = load i32, ptr %80, align 8
  %82 = getelementptr inbounds nuw %struct.ForEachState, ptr %13, i32 0, i32 0
  %83 = load ptr, ptr %82, align 8
  %84 = getelementptr inbounds nuw %struct.List, ptr %83, i32 0, i32 1
  %85 = load i32, ptr %84, align 4
  %86 = icmp slt i32 %81, %85
  br i1 %86, label %87, label %96

87:                                               ; preds = %79
  %88 = getelementptr inbounds nuw %struct.ForEachState, ptr %13, i32 0, i32 0
  %89 = load ptr, ptr %88, align 8
  %90 = getelementptr inbounds nuw %struct.List, ptr %89, i32 0, i32 3
  %91 = load ptr, ptr %90, align 8
  %92 = getelementptr inbounds nuw %struct.ForEachState, ptr %13, i32 0, i32 1
  %93 = load i32, ptr %92, align 8
  %94 = sext i32 %93 to i64
  %95 = getelementptr inbounds %union.ListCell, ptr %91, i64 %94
  store ptr %95, ptr %9, align 8
  br label %97

96:                                               ; preds = %79, %75
  store ptr null, ptr %9, align 8
  br label %97

97:                                               ; preds = %96, %87
  %98 = phi i32 [ 1, %87 ], [ 0, %96 ]
  %99 = icmp ne i32 %98, 0
  br i1 %99, label %101, label %100

100:                                              ; preds = %97
  call void @llvm.lifetime.end.p0(i64 16, ptr %13) #8
  br label %117

101:                                              ; preds = %97
  call void @llvm.lifetime.start.p0(i64 8, ptr %14) #8
  %102 = load ptr, ptr %9, align 8
  %103 = load ptr, ptr %102, align 8
  store ptr %103, ptr %14, align 8
  call void @llvm.lifetime.start.p0(i64 8, ptr %15) #8
  %104 = load ptr, ptr %3, align 8
  %105 = load ptr, ptr %14, align 8
  %106 = load ptr, ptr %5, align 8
  %107 = getelementptr inbounds nuw %struct.CoalesceExpr, ptr %106, i32 0, i32 1
  %108 = load i32, ptr %107, align 4
  %109 = call ptr @coerce_to_common_type(ptr noundef %104, ptr noundef %105, i32 noundef %108, ptr noundef @.str.113)
  store ptr %109, ptr %15, align 8
  %110 = load ptr, ptr %8, align 8
  %111 = load ptr, ptr %15, align 8
  %112 = call ptr @lappend(ptr noundef %110, ptr noundef %111)
  store ptr %112, ptr %8, align 8
  call void @llvm.lifetime.end.p0(i64 8, ptr %15) #8
  call void @llvm.lifetime.end.p0(i64 8, ptr %14) #8
  br label %113

113:                                              ; preds = %101
  %114 = getelementptr inbounds nuw %struct.ForEachState, ptr %13, i32 0, i32 1
  %115 = load i32, ptr %114, align 8
  %116 = add i32 %115, 1
  store i32 %116, ptr %114, align 8
  br label %75, !llvm.loop !22

117:                                              ; preds = %100
  %118 = load ptr, ptr %3, align 8
  %119 = getelementptr inbounds nuw %struct.ParseState, ptr %118, i32 0, i32 31
  %120 = load ptr, ptr %119, align 8
  %121 = load ptr, ptr %6, align 8
  %122 = icmp ne ptr %120, %121
  br i1 %122, label %123, label %142

123:                                              ; preds = %117
  br label %124

124:                                              ; preds = %123
  br i1 true, label %125, label %127

125:                                              ; preds = %124
  %126 = call zeroext i1 @errstart_cold(i32 noundef 21, ptr noundef null) #9
  br i1 %126, label %129, label %139

127:                                              ; preds = %124
  %128 = call zeroext i1 @errstart(i32 noundef 21, ptr noundef null)
  br i1 %128, label %129, label %139

129:                                              ; preds = %127, %125
  %130 = call i32 @errcode(i32 noundef 1088)
  %131 = call i32 (ptr, ...) @errmsg(ptr noundef @.str.109, ptr noundef @.str.113)
  %132 = call i32 (ptr, ...) @errhint(ptr noundef @.str.110)
  %133 = load ptr, ptr %3, align 8
  %134 = load ptr, ptr %3, align 8
  %135 = getelementptr inbounds nuw %struct.ParseState, ptr %134, i32 0, i32 31
  %136 = load ptr, ptr %135, align 8
  %137 = call i32 @exprLocation(ptr noundef %136)
  %138 = call i32 @parser_errposition(ptr noundef %133, i32 noundef %137)
  call void @errfinish(ptr noundef @.str.41, i32 noundef 2245, ptr noundef @__func__.transformCoalesceExpr)
  br label %139

139:                                              ; preds = %129, %127, %125
  unreachable

140:                                              ; No predecessors!
  br label %141

141:                                              ; preds = %140
  br label %142

142:                                              ; preds = %141, %117
  %143 = load ptr, ptr %8, align 8
  %144 = load ptr, ptr %5, align 8
  %145 = getelementptr inbounds nuw %struct.CoalesceExpr, ptr %144, i32 0, i32 3
  store ptr %143, ptr %145, align 8
  %146 = load ptr, ptr %4, align 8
  %147 = getelementptr inbounds nuw %struct.CoalesceExpr, ptr %146, i32 0, i32 4
  %148 = load i32, ptr %147, align 8
  %149 = load ptr, ptr %5, align 8
  %150 = getelementptr inbounds nuw %struct.CoalesceExpr, ptr %149, i32 0, i32 4
  store i32 %148, ptr %150, align 8
  %151 = load ptr, ptr %5, align 8
  call void @llvm.lifetime.end.p0(i64 8, ptr %9) #8
  call void @llvm.lifetime.end.p0(i64 8, ptr %8) #8
  call void @llvm.lifetime.end.p0(i64 8, ptr %7) #8
  call void @llvm.lifetime.end.p0(i64 8, ptr %6) #8
  call void @llvm.lifetime.end.p0(i64 8, ptr %5) #8
  ret ptr %151
}