; Function Attrs: nounwind uwtable
define internal fastcc noundef ptr @transformCoalesceExpr(ptr noundef %0, ptr noundef nonnull readonly captures(none) %1) unnamed_addr #0 {
  %3 = tail call noundef ptr @palloc0(i64 noundef 32) #9
  store i32 38, ptr %3, align 4
  %4 = getelementptr inbounds nuw i8, ptr %0, i64 192
  %5 = load ptr, ptr %4, align 8
  %6 = getelementptr inbounds nuw i8, ptr %1, i64 16
  %7 = load ptr, ptr %6, align 8
  %8 = getelementptr inbounds nuw i8, ptr %7, i64 4
  %.not = icmp eq ptr %7, null
  br i1 %.not, label %._crit_edge.thread, label %.lr.ph

.lr.ph:                                           ; preds = %2
  %9 = getelementptr inbounds nuw i8, ptr %7, i64 16
  %10 = load i32, ptr %8, align 4
  %11 = icmp sgt i32 %10, 0
  br i1 %11, label %.lr.ph57, label %._crit_edge.thread

._crit_edge.thread:                               ; preds = %2, %.lr.ph
  %12 = tail call i32 @select_common_type(ptr noundef nonnull %0, ptr noundef null, ptr noundef nonnull @.str.113, ptr noundef null) #9
  %13 = getelementptr inbounds nuw i8, ptr %3, i64 4
  store i32 %12, ptr %13, align 4
  br label %._crit_edge63

._crit_edge:                                      ; preds = %.lr.ph57
  %14 = tail call i32 @select_common_type(ptr noundef %0, ptr noundef %24, ptr noundef nonnull @.str.113, ptr noundef null) #9
  %15 = getelementptr inbounds nuw i8, ptr %3, i64 4
  store i32 %14, ptr %15, align 4
  %16 = getelementptr inbounds nuw i8, ptr %24, i64 4
  %.not41 = icmp eq ptr %24, null
  br i1 %.not41, label %._crit_edge63, label %.lr.ph62

.lr.ph62:                                         ; preds = %._crit_edge
  %17 = getelementptr inbounds nuw i8, ptr %24, i64 16
  %18 = load i32, ptr %16, align 4
  %19 = icmp sgt i32 %18, 0
  br i1 %19, label %.lr.ph71, label %._crit_edge63

.lr.ph57:                                         ; preds = %.lr.ph, %.lr.ph57
  %indvars.iv = phi i64 [ %indvars.iv.next, %.lr.ph57 ], [ 0, %.lr.ph ]
  %.05155 = phi ptr [ %24, %.lr.ph57 ], [ null, %.lr.ph ]
  %20 = load ptr, ptr %9, align 8
  %21 = getelementptr inbounds nuw %union.ListCell, ptr %20, i64 %indvars.iv
  %22 = load ptr, ptr %21, align 8
  %23 = tail call fastcc ptr @transformExprRecurse(ptr noundef %0, ptr noundef %22)
  %24 = tail call ptr @lappend(ptr noundef %.05155, ptr noundef %23) #9
  %indvars.iv.next = add nuw nsw i64 %indvars.iv, 1
  %25 = load i32, ptr %8, align 4
  %26 = sext i32 %25 to i64
  %27 = icmp slt i64 %indvars.iv.next, %26
  br i1 %27, label %.lr.ph57, label %._crit_edge

._crit_edge63:                                    ; preds = %.lr.ph71, %._crit_edge.thread, %.lr.ph62, %._crit_edge
  %.037.lcssa = phi ptr [ null, %._crit_edge ], [ null, %.lr.ph62 ], [ null, %._crit_edge.thread ], [ %34, %.lr.ph71 ]
  %28 = load ptr, ptr %4, align 8
  %.not43 = icmp eq ptr %28, %5
  br i1 %.not43, label %46, label %38

.lr.ph71:                                         ; preds = %.lr.ph62, %.lr.ph71
  %indvars.iv75 = phi i64 [ %indvars.iv.next76, %.lr.ph71 ], [ 0, %.lr.ph62 ]
  %.0376069 = phi ptr [ %34, %.lr.ph71 ], [ null, %.lr.ph62 ]
  %29 = load ptr, ptr %17, align 8
  %30 = getelementptr inbounds nuw %union.ListCell, ptr %29, i64 %indvars.iv75
  %31 = load ptr, ptr %30, align 8
  %32 = load i32, ptr %15, align 4
  %33 = tail call ptr @coerce_to_common_type(ptr noundef %0, ptr noundef %31, i32 noundef %32, ptr noundef nonnull @.str.113) #9
  %34 = tail call ptr @lappend(ptr noundef %.0376069, ptr noundef %33) #9
  %indvars.iv.next76 = add nuw nsw i64 %indvars.iv75, 1
  %35 = load i32, ptr %16, align 4
  %36 = sext i32 %35 to i64
  %37 = icmp slt i64 %indvars.iv.next76, %36
  br i1 %37, label %.lr.ph71, label %._crit_edge63

38:                                               ; preds = %._crit_edge63
  %39 = tail call zeroext i1 @errstart_cold(i32 noundef 21, ptr noundef null) #10
  tail call void @llvm.assume(i1 %39)
  %40 = tail call i32 @errcode(i32 noundef 1088) #9
  %41 = tail call i32 (ptr, ...) @errmsg(ptr noundef nonnull @.str.109, ptr noundef nonnull @.str.113) #9
  %42 = tail call i32 (ptr, ...) @errhint(ptr noundef nonnull @.str.110) #9
  %43 = load ptr, ptr %4, align 8
  %44 = tail call i32 @exprLocation(ptr noundef %43) #9
  %45 = tail call i32 @parser_errposition(ptr noundef nonnull %0, i32 noundef %44) #9
  tail call void @errfinish(ptr noundef nonnull @.str.41, i32 noundef 2245, ptr noundef nonnull @__func__.transformCoalesceExpr) #9
  unreachable

46:                                               ; preds = %._crit_edge63
  %47 = getelementptr inbounds nuw i8, ptr %3, i64 16
  store ptr %.037.lcssa, ptr %47, align 8
  %48 = getelementptr inbounds nuw i8, ptr %1, i64 24
  %49 = load i32, ptr %48, align 8
  %50 = getelementptr inbounds nuw i8, ptr %3, i64 24
  store i32 %49, ptr %50, align 8
  ret ptr %3
}